target datalayout = "e-m:e-p270:32:32-p271:32:32-p272:64:64-i64:64-i128:128-f80:128-n8:16:32:64-S128"
target triple = "x86_64-pc-linux-gnu"

%struct._zend_executor_globals = type { %struct._zval_struct, %struct._zval_struct, [32 x ptr], ptr, ptr, %struct._zend_array, %struct._zend_array, ptr, i32, i8, %struct._zval_struct, i32, ptr, ptr, ptr, ptr, ptr, ptr, i64, ptr, ptr, i32, ptr, i32, i64, i32, i32, i32, i8, i8, %struct.zend_atomic_bool_s, %struct.zend_atomic_bool_s, ptr, i64, ptr, ptr, %struct._zend_array, %struct._zend_array, i32, i8, %struct._zval_struct, %struct._zval_struct, %struct._zend_stack, %struct._zend_stack, %struct._zend_stack, ptr, i32, i32, i64, ptr, ptr, ptr, %struct._zend_objects_store, %struct._zend_lazy_objects_store, ptr, ptr, ptr, [3 x %struct._zend_op], ptr, i8, i8, i64, i32, i32, ptr, [16 x %struct._HashTableIterator], ptr, %union._zend_function, %struct._zend_op, %struct._zend_array, i64, %struct.zend_get_gc_buffer, ptr, ptr, ptr, i64, i8, i32, ptr, ptr, i64, %struct._zend_call_stack, i64, i64, %struct._zend_strtod_state, [6 x ptr] }
%struct.zend_atomic_bool_s = type { i8 }
%struct._zval_struct = type { %union._zend_value, %union.anon, %union.anon.2 }
%union._zend_value = type { i64 }
%union.anon = type { i32 }
%union.anon.2 = type { i32 }
%struct._zend_stack = type { i32, i32, i32, ptr }
%struct._zend_objects_store = type { ptr, i32, i32, i32 }
%struct._zend_lazy_objects_store = type { %struct._zend_array }
%struct._HashTableIterator = type { ptr, i32, i32 }
%union._zend_function = type { %struct._zend_op_array }
%struct._zend_op_array = type { i8, [3 x i8], i32, ptr, ptr, ptr, i32, i32, ptr, ptr, ptr, ptr, i32, ptr, i32, i32, i32, ptr, ptr, ptr, ptr, ptr, i32, i32, ptr, ptr, ptr, i32, i32, i32, i32, ptr, ptr, [6 x ptr] }
%struct._zend_op = type { ptr, %union._znode_op, %union._znode_op, %union._znode_op, i32, i32, i8, i8, i8, i8 }
%union._znode_op = type { i32 }
%struct._zend_array = type { %struct._zend_refcounted_h, %union.anon.4, i32, %union.anon.6, i32, i32, i32, i32, i64, ptr }
%struct._zend_refcounted_h = type { i32, %union.anon.3 }
%union.anon.3 = type { i32 }
%union.anon.4 = type { i32 }
%union.anon.6 = type { ptr }
%struct.zend_get_gc_buffer = type { ptr, ptr, ptr }
%struct._zend_call_stack = type { ptr, i64 }
%struct._zend_strtod_state = type { [8 x ptr], ptr, ptr }
%struct._zend_execute_data = type { ptr, ptr, ptr, ptr, %struct._zval_struct, ptr, ptr, ptr, ptr }
%struct._spl_dllist_object = type { ptr, ptr, i32, i32, ptr, ptr, ptr, ptr, ptr, ptr, %struct._zend_object }
%struct._zend_object = type { %struct._zend_refcounted_h, i32, i32, ptr, ptr, ptr, [1 x %struct._zval_struct] }

@executor_globals = external global %struct._zend_executor_globals, align 8
@spl_ce_RuntimeException = external global ptr, align 8
@.str.4 = private unnamed_addr constant [2 x i8] c"l\00", align 1
@.str.5 = private unnamed_addr constant [68 x i8] c"Iterators' LIFO/FIFO modes for SplStack/SplQueue objects are frozen\00", align 1

; Function Attrs: inlinehint nounwind uwtable
define internal ptr @spl_dllist_from_obj(ptr noundef %0) #4 {
  %2 = alloca ptr, align 8
  store ptr %0, ptr %2, align 8, !tbaa !54
  %3 = load ptr, ptr %2, align 8, !tbaa !54
  %4 = getelementptr inbounds i8, ptr %3, i64 -72
  ret ptr %4
}

; Function Attrs: nounwind uwtable
define hidden void @zim_SplDoublyLinkedList_setIteratorMode(ptr noundef %0, ptr noundef %1) #0 {
  %3 = alloca ptr, align 8
  %4 = alloca ptr, align 8
  %5 = alloca i64, align 8
  %6 = alloca ptr, align 8
  %7 = alloca i32, align 4
  %8 = alloca ptr, align 8
  store ptr %0, ptr %3, align 8, !tbaa !4
  store ptr %1, ptr %4, align 8, !tbaa !9
  call void @llvm.lifetime.start.p0(i64 8, ptr %5) #14
  call void @llvm.lifetime.start.p0(i64 8, ptr %6) #14
  %9 = load ptr, ptr %3, align 8, !tbaa !4
  %10 = getelementptr inbounds nuw %struct._zend_execute_data, ptr %9, i32 0, i32 4
  %11 = getelementptr inbounds nuw %struct._zval_struct, ptr %10, i32 0, i32 2
  %12 = load i32, ptr %11, align 4, !tbaa !11
  %13 = call i32 (i32, ptr, ...) @zend_parse_parameters(i32 noundef %12, ptr noundef @.str.4, ptr noundef %5)
  %14 = icmp eq i32 %13, -1
  br i1 %14, label %15, label %21

15:                                               ; preds = %2
  br label %16

16:                                               ; preds = %15
  %17 = load ptr, ptr getelementptr inbounds nuw (%struct._zend_executor_globals, ptr @executor_globals, i32 0, i32 54), align 8, !tbaa !12
  %18 = icmp ne ptr %17, null
  call void @llvm.assume(i1 %18)
  store i32 1, ptr %7, align 4
  br label %76

19:                                               ; No predecessors!
  br label %20

20:                                               ; preds = %19
  br label %21

21:                                               ; preds = %20, %2
  %22 = load ptr, ptr %3, align 8, !tbaa !4
  %23 = getelementptr inbounds nuw %struct._zend_execute_data, ptr %22, i32 0, i32 4
  %24 = getelementptr inbounds nuw %struct._zval_struct, ptr %23, i32 0, i32 0
  %25 = load ptr, ptr %24, align 8, !tbaa !11
  %26 = call ptr @spl_dllist_from_obj(ptr noundef %25)
  store ptr %26, ptr %6, align 8, !tbaa !45
  %27 = load ptr, ptr %6, align 8, !tbaa !45
  %28 = getelementptr inbounds nuw %struct._spl_dllist_object, ptr %27, i32 0, i32 3
  %29 = load i32, ptr %28, align 4, !tbaa !73
  %30 = and i32 %29, 4
  %31 = icmp ne i32 %30, 0
  br i1 %31, label %32, label %49

32:                                               ; preds = %21
  %33 = load ptr, ptr %6, align 8, !tbaa !45
  %34 = getelementptr inbounds nuw %struct._spl_dllist_object, ptr %33, i32 0, i32 3
  %35 = load i32, ptr %34, align 4, !tbaa !73
  %36 = and i32 %35, 2
  %37 = sext i32 %36 to i64
  %38 = load i64, ptr %5, align 8, !tbaa !68
  %39 = and i64 %38, 2
  %40 = icmp ne i64 %37, %39
  br i1 %40, label %41, label %49

41:                                               ; preds = %32
  %42 = load ptr, ptr @spl_ce_RuntimeException, align 8, !tbaa !67
  %43 = call ptr @zend_throw_exception(ptr noundef %42, ptr noundef @.str.5, i64 noundef 0)
  br label %44

44:                                               ; preds = %41
  %45 = load ptr, ptr getelementptr inbounds nuw (%struct._zend_executor_globals, ptr @executor_globals, i32 0, i32 54), align 8, !tbaa !12
  %46 = icmp ne ptr %45, null
  call void @llvm.assume(i1 %46)
  store i32 1, ptr %7, align 4
  br label %76

47:                                               ; No predecessors!
  br label %48

48:                                               ; preds = %47
  br label %49

49:                                               ; preds = %48, %32, %21
  %50 = load i64, ptr %5, align 8, !tbaa !68
  %51 = and i64 %50, 3
  %52 = load ptr, ptr %6, align 8, !tbaa !45
  %53 = getelementptr inbounds nuw %struct._spl_dllist_object, ptr %52, i32 0, i32 3
  %54 = load i32, ptr %53, align 4, !tbaa !73
  %55 = and i32 %54, 4
  %56 = sext i32 %55 to i64
  %57 = or i64 %51, %56
  %58 = trunc i64 %57 to i32
  %59 = load ptr, ptr %6, align 8, !tbaa !45
  %60 = getelementptr inbounds nuw %struct._spl_dllist_object, ptr %59, i32 0, i32 3
  store i32 %58, ptr %60, align 4, !tbaa !73
  br label %61

61:                                               ; preds = %49
  br label %62

62:                                               ; preds = %61
  call void @llvm.lifetime.start.p0(i64 8, ptr %8) #14
  %63 = load ptr, ptr %4, align 8, !tbaa !9
  store ptr %63, ptr %8, align 8, !tbaa !9
  %64 = load ptr, ptr %6, align 8, !tbaa !45
  %65 = getelementptr inbounds nuw %struct._spl_dllist_object, ptr %64, i32 0, i32 3
  %66 = load i32, ptr %65, align 4, !tbaa !73
  %67 = sext i32 %66 to i64
  %68 = load ptr, ptr %8, align 8, !tbaa !9
  %69 = getelementptr inbounds nuw %struct._zval_struct, ptr %68, i32 0, i32 0
  store i64 %67, ptr %69, align 8, !tbaa !11
  %70 = load ptr, ptr %8, align 8, !tbaa !9
  %71 = getelementptr inbounds nuw %struct._zval_struct, ptr %70, i32 0, i32 1
  store i32 4, ptr %71, align 8, !tbaa !11
  call void @llvm.lifetime.end.p0(i64 8, ptr %8) #14
  br label %72

72:                                               ; preds = %62
  br label %73

73:                                               ; preds = %72
  store i32 1, ptr %7, align 4
  br label %76

74:                                               ; No predecessors!
  br label %75

75:                                               ; preds = %74
  store i32 0, ptr %7, align 4
  br label %76

76:                                               ; preds = %75, %73, %44, %16
  call void @llvm.lifetime.end.p0(i64 8, ptr %6) #14
  call void @llvm.lifetime.end.p0(i64 8, ptr %5) #14
  %77 = load i32, ptr %7, align 4
  switch i32 %77, label %79 [
    i32 0, label %78
    i32 1, label %78
  ]

78:                                               ; preds = %76, %76
  ret void

79:                                               ; preds = %76
  unreachable
}