; Function Attrs: nounwind uwtable
define hidden void @zim_SplDoublyLinkedList_setIteratorMode(ptr noundef readonly captures(none) %0, ptr noundef writeonly captures(none) %1) #0 {
  %3 = alloca i64, align 8
  call void @llvm.lifetime.start.p0(i64 8, ptr nonnull %3) #13
  %4 = getelementptr inbounds nuw i8, ptr %0, i64 44
  %5 = load i32, ptr %4, align 4, !tbaa !4
  %6 = call i32 (i32, ptr, ...) @zend_parse_parameters(i32 noundef %5, ptr noundef nonnull @.str.4, ptr noundef nonnull %3) #13
  %7 = icmp eq i32 %6, -1
  br i1 %7, label %8, label %11

8:                                                ; preds = %2
  %9 = load ptr, ptr getelementptr inbounds nuw (i8, ptr @executor_globals, i64 960), align 8, !tbaa !7
  %10 = icmp ne ptr %9, null
  call void @llvm.assume(i1 %10)
  br label %32

11:                                               ; preds = %2
  %12 = getelementptr inbounds nuw i8, ptr %0, i64 32
  %13 = load ptr, ptr %12, align 8, !tbaa !4
  %14 = getelementptr inbounds i8, ptr %13, i64 -52
  %15 = load i32, ptr %14, align 4, !tbaa !66
  %16 = and i32 %15, 4
  %.not = icmp eq i32 %16, 0
  %.pre = load i64, ptr %3, align 8, !tbaa !65
  br i1 %.not, label %26, label %17

17:                                               ; preds = %11
  %18 = and i32 %15, 2
  %19 = zext nneg i32 %18 to i64
  %20 = and i64 %.pre, 2
  %.not10 = icmp eq i64 %20, %19
  br i1 %.not10, label %26, label %21

21:                                               ; preds = %17
  %22 = load ptr, ptr @spl_ce_RuntimeException, align 8, !tbaa !60
  %23 = call ptr @zend_throw_exception(ptr noundef %22, ptr noundef nonnull @.str.5, i64 noundef 0) #13
  %24 = load ptr, ptr getelementptr inbounds nuw (i8, ptr @executor_globals, i64 960), align 8, !tbaa !7
  %25 = icmp ne ptr %24, null
  call void @llvm.assume(i1 %25)
  br label %32

26:                                               ; preds = %17, %11
  %27 = trunc i64 %.pre to i32
  %28 = and i32 %27, 3
  %29 = or disjoint i32 %28, %16
  store i32 %29, ptr %14, align 4, !tbaa !66
  %30 = zext nneg i32 %29 to i64
  store i64 %30, ptr %1, align 8, !tbaa !4
  %31 = getelementptr inbounds nuw i8, ptr %1, i64 8
  store i32 4, ptr %31, align 8, !tbaa !4
  br label %32

32:                                               ; preds = %26, %21, %8
  call void @llvm.lifetime.end.p0(i64 8, ptr nonnull %3) #13
  ret void
}